; Function Attrs: nounwind uwtable
define internal fastcc void @PrintFinalStats(ptr noundef %0) unnamed_addr #0 {
  %2 = alloca i64, align 8
  %3 = alloca i64, align 8
  call void @llvm.lifetime.start.p0(i64 8, ptr nonnull %2) #7
  call void @llvm.lifetime.start.p0(i64 8, ptr nonnull %3) #7
  %4 = call i32 @KINGetNumNonlinSolvIters(ptr noundef %0, ptr noundef nonnull %2) #7
  %5 = icmp slt i32 %4, 0
  br i1 %5, label %6, label %check_retval.exit

6:                                                ; preds = %1
  %7 = load ptr, ptr @stderr, align 8, !tbaa !8
  %8 = call i32 (ptr, ptr, ...) @fprintf(ptr noundef %7, ptr noundef nonnull @.str.23, ptr noundef nonnull @.str.18, i32 noundef %4) #8
  br label %check_retval.exit

check_retval.exit:                                ; preds = %1, %6
  %9 = call i32 @KINGetNumFuncEvals(ptr noundef %0, ptr noundef nonnull %3) #7
  %10 = icmp slt i32 %9, 0
  br i1 %10, label %11, label %check_retval.exit3

11:                                               ; preds = %check_retval.exit
  %12 = load ptr, ptr @stderr, align 8, !tbaa !8
  %13 = call i32 (ptr, ptr, ...) @fprintf(ptr noundef %12, ptr noundef nonnull @.str.23, ptr noundef nonnull @.str.19, i32 noundef %9) #8
  br label %check_retval.exit3

check_retval.exit3:                               ; preds = %check_retval.exit, %11
  %puts = call i32 @puts(ptr nonnull dereferenceable(1) @str.9)
  %14 = load i64, ptr %2, align 8, !tbaa !22
  %15 = load i64, ptr %3, align 8, !tbaa !22
  %16 = call i32 (ptr, ...) @printf(ptr noundef nonnull dereferenceable(1) @.str.21, i64 noundef %14, i64 noundef %15)
  call void @llvm.lifetime.end.p0(i64 8, ptr nonnull %3) #7
  call void @llvm.lifetime.end.p0(i64 8, ptr nonnull %2) #7
  ret void
}